target datalayout = "e-m:e-p270:32:32-p271:32:32-p272:64:64-i64:64-i128:128-f80:128-n8:16:32:64-S128"
target triple = "x86_64-pc-linux-gnu"

%struct.PJconsts = type { ptr, ptr, ptr, ptr, ptr, ptr, ptr, ptr, ptr, ptr, ptr, ptr, i32, ptr, ptr, ptr, ptr, ptr, ptr, ptr, ptr, double, double, double, double, double, double, double, double, double, double, double, double, double, double, double, double, double, double, double, double, double, double, i32, i32, i32, i32, i32, i32, i32, i32, i32, i32, i32, ptr, ptr, ptr, ptr, ptr, ptr, double, double, double, double, double, double, double, double, double, double, double, i32, [7 x double], i32, ptr, ptr, double, double, i32, [4 x i8], %"class.std::shared_ptr", i8, double, i8, %"class.std::__cxx11::basic_string", %"class.std::__cxx11::basic_string", %"class.std::__cxx11::basic_string", i8, %"class.std::vector", i32, %"class.std::vector.3", i32, i8, i8, i8, ptr }
%"class.std::shared_ptr" = type { %"class.std::__shared_ptr" }
%"class.std::__shared_ptr" = type { ptr, %"class.std::__shared_count" }
%"class.std::__shared_count" = type { ptr }
%"class.std::__cxx11::basic_string" = type { %"struct.std::__cxx11::basic_string<char>::_Alloc_hider", i64, %union.anon }
%"struct.std::__cxx11::basic_string<char>::_Alloc_hider" = type { ptr }
%union.anon = type { i64, [8 x i8] }
%"class.std::vector" = type { %"struct.std::_Vector_base" }
%"struct.std::_Vector_base" = type { %"struct.std::_Vector_base<osgeo::proj::operation::GridDescription, std::allocator<osgeo::proj::operation::GridDescription>>::_Vector_impl" }
%"struct.std::_Vector_base<osgeo::proj::operation::GridDescription, std::allocator<osgeo::proj::operation::GridDescription>>::_Vector_impl" = type { %"struct.std::_Vector_base<osgeo::proj::operation::GridDescription, std::allocator<osgeo::proj::operation::GridDescription>>::_Vector_impl_data" }
%"struct.std::_Vector_base<osgeo::proj::operation::GridDescription, std::allocator<osgeo::proj::operation::GridDescription>>::_Vector_impl_data" = type { ptr, ptr, ptr }
%"class.std::vector.3" = type { %"struct.std::_Vector_base.4" }
%"struct.std::_Vector_base.4" = type { %"struct.std::_Vector_base<PJCoordOperation, std::allocator<PJCoordOperation>>::_Vector_impl" }
%"struct.std::_Vector_base<PJCoordOperation, std::allocator<PJCoordOperation>>::_Vector_impl" = type { %"struct.std::_Vector_base<PJCoordOperation, std::allocator<PJCoordOperation>>::_Vector_impl_data" }
%"struct.std::_Vector_base<PJCoordOperation, std::allocator<PJCoordOperation>>::_Vector_impl_data" = type { ptr, ptr, ptr }
%"struct.(anonymous namespace)::pj_axisswap_data" = type { [4 x i32], [4 x i32] }
%union.PJ_COORD = type { [4 x double] }

; Function Attrs: mustprogress nounwind uwtable
define internal void @_ZL22pj_axisswap_reverse_4dR8PJ_COORDP8PJconsts(ptr noundef nonnull align 8 dereferenceable(32) %0, ptr noundef %1) #7 {
  %3 = alloca ptr, align 8
  %4 = alloca ptr, align 8
  %5 = alloca ptr, align 8
  %6 = alloca i32, align 4
  %7 = alloca %union.PJ_COORD, align 8
  store ptr %0, ptr %3, align 8, !tbaa !67
  store ptr %1, ptr %4, align 8, !tbaa !3
  call void @llvm.lifetime.start.p0(i64 8, ptr %5) #11
  %8 = load ptr, ptr %4, align 8, !tbaa !3
  %9 = getelementptr inbounds nuw %struct.PJconsts, ptr %8, i32 0, i32 11
  %10 = load ptr, ptr %9, align 8, !tbaa !44
  store ptr %10, ptr %5, align 8, !tbaa !41
  call void @llvm.lifetime.start.p0(i64 4, ptr %6) #11
  call void @llvm.lifetime.start.p0(i64 32, ptr %7) #11
  store i32 0, ptr %6, align 4, !tbaa !43
  br label %11

11:                                               ; preds = %36, %2
  %12 = load i32, ptr %6, align 4, !tbaa !43
  %13 = icmp ult i32 %12, 4
  br i1 %13, label %14, label %39

14:                                               ; preds = %11
  %15 = load ptr, ptr %3, align 8, !tbaa !67
  %16 = load i32, ptr %6, align 4, !tbaa !43
  %17 = zext i32 %16 to i64
  %18 = getelementptr inbounds nuw [4 x double], ptr %15, i64 0, i64 %17
  %19 = load double, ptr %18, align 8, !tbaa !49
  %20 = load ptr, ptr %5, align 8, !tbaa !41
  %21 = getelementptr inbounds nuw %"struct.(anonymous namespace)::pj_axisswap_data", ptr %20, i32 0, i32 1
  %22 = load i32, ptr %6, align 4, !tbaa !43
  %23 = zext i32 %22 to i64
  %24 = getelementptr inbounds nuw [4 x i32], ptr %21, i64 0, i64 %23
  %25 = load i32, ptr %24, align 4, !tbaa !43
  %26 = sitofp i32 %25 to double
  %27 = fmul double %19, %26
  %28 = load ptr, ptr %5, align 8, !tbaa !41
  %29 = getelementptr inbounds nuw %"struct.(anonymous namespace)::pj_axisswap_data", ptr %28, i32 0, i32 0
  %30 = load i32, ptr %6, align 4, !tbaa !43
  %31 = zext i32 %30 to i64
  %32 = getelementptr inbounds nuw [4 x i32], ptr %29, i64 0, i64 %31
  %33 = load i32, ptr %32, align 4, !tbaa !43
  %34 = zext i32 %33 to i64
  %35 = getelementptr inbounds nuw [4 x double], ptr %7, i64 0, i64 %34
  store double %27, ptr %35, align 8, !tbaa !49
  br label %36

36:                                               ; preds = %14
  %37 = load i32, ptr %6, align 4, !tbaa !43
  %38 = add i32 %37, 1
  store i32 %38, ptr %6, align 4, !tbaa !43
  br label %11, !llvm.loop !71

39:                                               ; preds = %11
  %40 = load ptr, ptr %3, align 8, !tbaa !67
  call void @llvm.memcpy.p0.p0.i64(ptr align 8 %40, ptr align 8 %7, i64 32, i1 false), !tbaa.struct !70
  call void @llvm.lifetime.end.p0(i64 32, ptr %7) #11
  call void @llvm.lifetime.end.p0(i64 4, ptr %6) #11
  call void @llvm.lifetime.end.p0(i64 8, ptr %5) #11
  ret void
}